; Function Attrs: mustprogress nofree norecurse nosync nounwind willreturn memory(read, inaccessiblemem: none) uwtable
define dso_local noundef zeroext i1 @_ZNK4node4quic7Session19is_graceful_closingEv(ptr nocapture noundef nonnull readonly align 8 dereferenceable(2616) %this) local_unnamed_addr #11 align 2 {
entry:
  %ptr_.i = getelementptr inbounds i8, ptr %this, i64 128
  %0 = load ptr, ptr %ptr_.i, align 8
  %graceful_close = getelementptr inbounds i8, ptr %0, i64 5
  %1 = load i8, ptr %graceful_close, align 1
  %tobool = icmp ne i8 %1, 0
  ret i1 %tobool
}